; Function Attrs: mustprogress uwtable
define hidden void @_ZNK2dd3fdd8non_zeroEv(ptr noalias sret(%"class.dd::bdd") align 8 %agg.result, ptr nocapture noundef nonnull readonly align 8 dereferenceable(40) %this) local_unnamed_addr #3 align 2 personality ptr @__gxx_personality_v0 {
entry:
  %agg.tmp.ensured = alloca %"class.dd::bdd", align 8
  %ref.tmp = alloca %"class.dd::bdd", align 8
  %m = getelementptr inbounds i8, ptr %this, i64 16
  %0 = load ptr, ptr %m, align 8
  tail call void @_ZN2dd11bdd_manager8mk_falseEv(ptr sret(%"class.dd::bdd") align 8 %agg.result, ptr noundef nonnull align 8 dereferenceable(728) %0)
  %1 = load ptr, ptr %this, align 8
  %cmp.i.i = icmp eq ptr %1, null
  br i1 %cmp.i.i, label %nrvo.skipdtor, label %_ZNK6vectorIjLb0EjE3endEv.exit

_ZNK6vectorIjLb0EjE3endEv.exit:                   ; preds = %entry
  %arrayidx.i.i = getelementptr inbounds i8, ptr %1, i64 -4
  %2 = load i32, ptr %arrayidx.i.i, align 4
  %3 = zext i32 %2 to i64
  %add.ptr.i = getelementptr inbounds i32, ptr %1, i64 %3
  %cmp.not35 = icmp eq i32 %2, 0
  br i1 %cmp.not35, label %nrvo.skipdtor, label %for.body.lr.ph

for.body.lr.ph:                                   ; preds = %_ZNK6vectorIjLb0EjE3endEv.exit
  %m.i = getelementptr inbounds i8, ptr %agg.tmp.ensured, i64 8
  %m.i6 = getelementptr inbounds i8, ptr %ref.tmp, i64 8
  br label %for.body

for.body:                                         ; preds = %for.body.lr.ph, %_ZN2dd3bddD2Ev.exit34
  %__begin1.036 = phi ptr [ %1, %for.body.lr.ph ], [ %incdec.ptr, %_ZN2dd3bddD2Ev.exit34 ]
  %4 = load i32, ptr %__begin1.036, align 4
  %5 = load ptr, ptr %m, align 8
  invoke void @_ZN2dd11bdd_manager6mk_varEj(ptr nonnull sret(%"class.dd::bdd") align 8 %ref.tmp, ptr noundef nonnull align 8 dereferenceable(728) %5, i32 noundef %4)
          to label %invoke.cont5 unwind label %lpad

invoke.cont5:                                     ; preds = %for.body
  invoke void @_ZN2dd3bddoRERKS0_(ptr nonnull sret(%"class.dd::bdd") align 8 %agg.tmp.ensured, ptr noundef nonnull align 8 dereferenceable(16) %agg.result, ptr noundef nonnull align 8 dereferenceable(16) %ref.tmp)
          to label %invoke.cont7 unwind label %lpad6

invoke.cont7:                                     ; preds = %invoke.cont5
  %6 = load ptr, ptr %m.i, align 8
  %7 = load i32, ptr %agg.tmp.ensured, align 8
  %m_nodes.i.i = getelementptr inbounds i8, ptr %6, i64 8
  %8 = load ptr, ptr %m_nodes.i.i, align 8
  %idxprom.i.i.i = zext i32 %7 to i64
  %arrayidx.i.i.i = getelementptr inbounds %"struct.dd::bdd_manager::bdd_node", ptr %8, i64 %idxprom.i.i.i
  %bf.load.i.i = load i32, ptr %arrayidx.i.i.i, align 4
  %bf.clear.i.i = and i32 %bf.load.i.i, 1023
  %cmp.not.i.i = icmp eq i32 %bf.clear.i.i, 1023
  br i1 %cmp.not.i.i, label %if.end.i.i5, label %if.then.i.i

if.then.i.i:                                      ; preds = %invoke.cont7
  %dec.i.i = add i32 %bf.load.i.i, 1023
  %bf.value.i.i = and i32 %dec.i.i, 1023
  %bf.clear7.i.i = and i32 %bf.load.i.i, -1024
  %bf.set.i.i = or disjoint i32 %bf.value.i.i, %bf.clear7.i.i
  store i32 %bf.set.i.i, ptr %arrayidx.i.i.i, align 4
  br label %if.end.i.i5

if.end.i.i5:                                      ; preds = %if.then.i.i, %invoke.cont7
  %m_free_nodes.i.i = getelementptr inbounds i8, ptr %6, i64 112
  %9 = load ptr, ptr %m_free_nodes.i.i, align 8
  %cmp.i.i.i.i.i = icmp eq ptr %9, null
  br i1 %cmp.i.i.i.i.i, label %_ZN2dd3bddD2Ev.exit, label %_ZNK6vectorIjLb0EjE3endEv.exit.i.i.i

_ZNK6vectorIjLb0EjE3endEv.exit.i.i.i:             ; preds = %if.end.i.i5
  %arrayidx.i.i.i.i.i = getelementptr inbounds i8, ptr %9, i64 -4
  %10 = load i32, ptr %arrayidx.i.i.i.i.i, align 4
  %11 = zext i32 %10 to i64
  %add.ptr.i.i.i.i = getelementptr inbounds i32, ptr %9, i64 %11
  %cmp.not3.not.i.i.i = icmp eq i32 %10, 0
  br i1 %cmp.not3.not.i.i.i, label %_ZN2dd3bddD2Ev.exit, label %for.body.i.i.i

for.cond.i.i.i:                                   ; preds = %for.body.i.i.i
  %incdec.ptr.i.i.i = getelementptr inbounds i8, ptr %it.04.i.i.i, i64 4
  %cmp.not.not.i.i.i = icmp eq ptr %incdec.ptr.i.i.i, %add.ptr.i.i.i.i
  br i1 %cmp.not.not.i.i.i, label %_ZN2dd3bddD2Ev.exit, label %for.body.i.i.i, !llvm.loop !6

for.body.i.i.i:                                   ; preds = %_ZNK6vectorIjLb0EjE3endEv.exit.i.i.i, %for.cond.i.i.i
  %it.04.i.i.i = phi ptr [ %incdec.ptr.i.i.i, %for.cond.i.i.i ], [ %9, %_ZNK6vectorIjLb0EjE3endEv.exit.i.i.i ]
  %12 = load i32, ptr %it.04.i.i.i, align 4
  %cmp3.i.i.i = icmp eq i32 %12, %7
  br i1 %cmp3.i.i.i, label %if.then9.i.i, label %for.cond.i.i.i

if.then9.i.i:                                     ; preds = %for.body.i.i.i
  invoke void @_Z26notify_assertion_violationPKciS0_(ptr noundef nonnull @.str.5, i32 noundef 187, ptr noundef nonnull @.str.6)
          to label %.noexc.i unwind label %terminate.lpad.i

.noexc.i:                                         ; preds = %if.then9.i.i
  call void @exit(i32 noundef 114) #16
  unreachable

terminate.lpad.i:                                 ; preds = %if.then9.i.i
  %13 = landingpad { ptr, i32 }
          catch ptr null
  %14 = extractvalue { ptr, i32 } %13, 0
  call void @__clang_call_terminate(ptr %14) #16
  unreachable

_ZN2dd3bddD2Ev.exit:                              ; preds = %for.cond.i.i.i, %if.end.i.i5, %_ZNK6vectorIjLb0EjE3endEv.exit.i.i.i
  %15 = load ptr, ptr %m.i6, align 8
  %16 = load i32, ptr %ref.tmp, align 8
  %m_nodes.i.i7 = getelementptr inbounds i8, ptr %15, i64 8
  %17 = load ptr, ptr %m_nodes.i.i7, align 8
  %idxprom.i.i.i8 = zext i32 %16 to i64
  %arrayidx.i.i.i9 = getelementptr inbounds %"struct.dd::bdd_manager::bdd_node", ptr %17, i64 %idxprom.i.i.i8
  %bf.load.i.i10 = load i32, ptr %arrayidx.i.i.i9, align 4
  %bf.clear.i.i11 = and i32 %bf.load.i.i10, 1023
  %cmp.not.i.i12 = icmp eq i32 %bf.clear.i.i11, 1023
  br i1 %cmp.not.i.i12, label %if.end.i.i18, label %if.then.i.i13

if.then.i.i13:                                    ; preds = %_ZN2dd3bddD2Ev.exit
  %dec.i.i14 = add i32 %bf.load.i.i10, 1023
  %bf.value.i.i15 = and i32 %dec.i.i14, 1023
  %bf.clear7.i.i16 = and i32 %bf.load.i.i10, -1024
  %bf.set.i.i17 = or disjoint i32 %bf.value.i.i15, %bf.clear7.i.i16
  store i32 %bf.set.i.i17, ptr %arrayidx.i.i.i9, align 4
  br label %if.end.i.i18

if.end.i.i18:                                     ; preds = %if.then.i.i13, %_ZN2dd3bddD2Ev.exit
  %m_free_nodes.i.i19 = getelementptr inbounds i8, ptr %15, i64 112
  %18 = load ptr, ptr %m_free_nodes.i.i19, align 8
  %cmp.i.i.i.i.i20 = icmp eq ptr %18, null
  br i1 %cmp.i.i.i.i.i20, label %_ZN2dd3bddD2Ev.exit34, label %_ZNK6vectorIjLb0EjE3endEv.exit.i.i.i21

_ZNK6vectorIjLb0EjE3endEv.exit.i.i.i21:           ; preds = %if.end.i.i18
  %arrayidx.i.i.i.i.i22 = getelementptr inbounds i8, ptr %18, i64 -4
  %19 = load i32, ptr %arrayidx.i.i.i.i.i22, align 4
  %20 = zext i32 %19 to i64
  %add.ptr.i.i.i.i23 = getelementptr inbounds i32, ptr %18, i64 %20
  %cmp.not3.not.i.i.i24 = icmp eq i32 %19, 0
  br i1 %cmp.not3.not.i.i.i24, label %_ZN2dd3bddD2Ev.exit34, label %for.body.i.i.i25

for.cond.i.i.i28:                                 ; preds = %for.body.i.i.i25
  %incdec.ptr.i.i.i29 = getelementptr inbounds i8, ptr %it.04.i.i.i26, i64 4
  %cmp.not.not.i.i.i30 = icmp eq ptr %incdec.ptr.i.i.i29, %add.ptr.i.i.i.i23
  br i1 %cmp.not.not.i.i.i30, label %_ZN2dd3bddD2Ev.exit34, label %for.body.i.i.i25, !llvm.loop !6

for.body.i.i.i25:                                 ; preds = %_ZNK6vectorIjLb0EjE3endEv.exit.i.i.i21, %for.cond.i.i.i28
  %it.04.i.i.i26 = phi ptr [ %incdec.ptr.i.i.i29, %for.cond.i.i.i28 ], [ %18, %_ZNK6vectorIjLb0EjE3endEv.exit.i.i.i21 ]
  %21 = load i32, ptr %it.04.i.i.i26, align 4
  %cmp3.i.i.i27 = icmp eq i32 %21, %16
  br i1 %cmp3.i.i.i27, label %if.then9.i.i31, label %for.cond.i.i.i28

if.then9.i.i31:                                   ; preds = %for.body.i.i.i25
  invoke void @_Z26notify_assertion_violationPKciS0_(ptr noundef nonnull @.str.5, i32 noundef 187, ptr noundef nonnull @.str.6)
          to label %.noexc.i33 unwind label %terminate.lpad.i32

.noexc.i33:                                       ; preds = %if.then9.i.i31
  call void @exit(i32 noundef 114) #16
  unreachable

terminate.lpad.i32:                               ; preds = %if.then9.i.i31
  %22 = landingpad { ptr, i32 }
          catch ptr null
  %23 = extractvalue { ptr, i32 } %22, 0
  call void @__clang_call_terminate(ptr %23) #16
  unreachable

_ZN2dd3bddD2Ev.exit34:                            ; preds = %for.cond.i.i.i28, %if.end.i.i18, %_ZNK6vectorIjLb0EjE3endEv.exit.i.i.i21
  %incdec.ptr = getelementptr inbounds i8, ptr %__begin1.036, i64 4
  %cmp.not = icmp eq ptr %incdec.ptr, %add.ptr.i
  br i1 %cmp.not, label %nrvo.skipdtor, label %for.body

lpad:                                             ; preds = %for.body
  %24 = landingpad { ptr, i32 }
          cleanup
  br label %ehcleanup

lpad6:                                            ; preds = %invoke.cont5
  %25 = landingpad { ptr, i32 }
          cleanup
  call void @_ZN2dd3bddD2Ev(ptr noundef nonnull align 8 dereferenceable(16) %ref.tmp) #14
  br label %ehcleanup

nrvo.skipdtor:                                    ; preds = %_ZN2dd3bddD2Ev.exit34, %entry, %_ZNK6vectorIjLb0EjE3endEv.exit
  ret void

ehcleanup:                                        ; preds = %lpad6, %lpad
  %.pn = phi { ptr, i32 } [ %25, %lpad6 ], [ %24, %lpad ]
  call void @_ZN2dd3bddD2Ev(ptr noundef nonnull align 8 dereferenceable(16) %agg.result) #14
  resume { ptr, i32 } %.pn
}